target datalayout = "e-m:e-p270:32:32-p271:32:32-p272:64:64-i64:64-i128:128-f80:128-n8:16:32:64-S128"
target triple = "x86_64-pc-linux-gnu"

; Function Attrs: mustprogress uwtable
define noundef i64 @_ZNK6icu_7720IslamicCivilCalendar10monthStartEiiR10UErrorCode(ptr noundef nonnull align 8 dereferenceable(192) %0, i32 noundef %1, i32 noundef %2, ptr noundef nonnull align 4 dereferenceable(4) %3) unnamed_addr #1 align 2 {
  %5 = alloca ptr, align 8
  %6 = alloca i32, align 4
  %7 = alloca i32, align 4
  %8 = alloca ptr, align 8
  store ptr %0, ptr %5, align 8, !tbaa !43
  store i32 %1, ptr %6, align 4, !tbaa !17
  store i32 %2, ptr %7, align 4, !tbaa !17
  store ptr %3, ptr %8, align 8, !tbaa !12
  %9 = load i32, ptr %7, align 4, !tbaa !17
  %10 = sitofp i32 %9 to double
  %11 = fmul double 2.950000e+01, %10
  %12 = call double @uprv_ceil_77(double noundef %11)
  %13 = load i32, ptr %6, align 4, !tbaa !17
  %14 = sext i32 %13 to i64
  %15 = sub nsw i64 %14, 1
  %16 = mul nsw i64 354, %15
  %17 = sitofp i64 %16 to double
  %18 = fadd double %12, %17
  %19 = load i32, ptr %6, align 4, !tbaa !17
  %20 = sext i32 %19 to i64
  %21 = mul nsw i64 11, %20
  %22 = add nsw i64 %21, 3
  %23 = call noundef i64 @_ZN6icu_779ClockMath16floorDivideInt64Ell(i64 noundef %22, i64 noundef 30)
  %24 = sitofp i64 %23 to double
  %25 = fadd double %18, %24
  %26 = fptosi double %25 to i64
  ret i64 %26
}